(dp1
S'var'
p2
(lp3
cnumpy.core.multiarray
scalar
p4
(cnumpy
dtype
p5
(S'f4'
I0
I1
tRp6
(I3
S'<'
NNNI-1
I-1
I0
tbS'\x10 \x92H'
tRp7
ag4
(g6
S'\xe7\xce\xb0H'
tRp8
ag4
(g6
S'0<\x9bH'
tRp9
ag4
(g6
S'\x0c\xf8\x9bH'
tRp10
asS'mn'
p11
(lp12
g4
(g6
S'=\x1a\xcaB'
tRp13
ag4
(g6
S'3\xfe\xd0B'
tRp14
ag4
(g6
S'\x0e\xb5\xdeB'
tRp15
ag4
(g6
S'`\x8d\x8cB'
tRp16
as.